target datalayout = "e-m:e-p270:32:32-p271:32:32-p272:64:64-i64:64-i128:128-f80:128-n8:16:32:64-S128"
target triple = "x86_64-pc-linux-gnu"

@.str.28 = private unnamed_addr constant [34 x i8] c"../openssl/test/evp_extra_test2.c\00", align 1
@.str.57 = private unnamed_addr constant [2 x i8] c"1\00", align 1
@.str.64 = private unnamed_addr constant [47 x i8] c"provider = OSSL_PROVIDER_load(NULL, \22default\22)\00", align 1
@.str.65 = private unnamed_addr constant [8 x i8] c"default\00", align 1
@.str.69 = private unnamed_addr constant [2 x i8] c"0\00", align 1
@test_pkcs8key_nid_bio.pwd = internal constant [9 x i8] c"PASSWORD\00", align 1
@.str.193 = private unnamed_addr constant [31 x i8] c"enc_bio = BIO_new(BIO_s_mem())\00", align 1
@.str.194 = private unnamed_addr constant [71 x i8] c"in = BIO_new_mem_buf(kExampleRSAKeyPKCS8, sizeof(kExampleRSAKeyPKCS8))\00", align 1
@.str.195 = private unnamed_addr constant [51 x i8] c"pkey = d2i_PrivateKey_ex_bio(in, NULL, NULL, NULL)\00", align 1
@.str.196 = private unnamed_addr constant [82 x i8] c"i2d_PKCS8PrivateKey_nid_bio(enc_bio, pkey, nid, pwd, sizeof(pwd) - 1, NULL, NULL)\00", align 1
@.str.197 = private unnamed_addr constant [51 x i8] c"enc_datalen = BIO_get_mem_data(enc_bio, &enc_data)\00", align 1
@.str.198 = private unnamed_addr constant [69 x i8] c"pkey_dec = d2i_PKCS8PrivateKey_bio(enc_bio, NULL, NULL, (void *)pwd)\00", align 1
@.str.199 = private unnamed_addr constant [28 x i8] c"EVP_PKEY_eq(pkey, pkey_dec)\00", align 1

; Function Attrs: nounwind uwtable
define internal i32 @test_pkcs8key_nid_bio() #0 {
  %1 = alloca i32, align 4
  %2 = alloca i32, align 4
  %3 = alloca ptr, align 8
  %4 = alloca ptr, align 8
  %5 = alloca ptr, align 8
  %6 = alloca ptr, align 8
  %7 = alloca ptr, align 8
  %8 = alloca i64, align 8
  %9 = alloca ptr, align 8
  call void @llvm.lifetime.start.p0(i64 4, ptr %1) #7
  call void @llvm.lifetime.start.p0(i64 4, ptr %2) #7
  store i32 146, ptr %2, align 4, !tbaa !11
  call void @llvm.lifetime.start.p0(i64 8, ptr %3) #7
  store ptr null, ptr %3, align 8, !tbaa !13
  call void @llvm.lifetime.start.p0(i64 8, ptr %4) #7
  store ptr null, ptr %4, align 8, !tbaa !13
  call void @llvm.lifetime.start.p0(i64 8, ptr %5) #7
  store ptr null, ptr %5, align 8, !tbaa !31
  call void @llvm.lifetime.start.p0(i64 8, ptr %6) #7
  store ptr null, ptr %6, align 8, !tbaa !31
  call void @llvm.lifetime.start.p0(i64 8, ptr %7) #7
  store ptr null, ptr %7, align 8, !tbaa !21
  call void @llvm.lifetime.start.p0(i64 8, ptr %8) #7
  store i64 0, ptr %8, align 8, !tbaa !23
  call void @llvm.lifetime.start.p0(i64 8, ptr %9) #7
  store ptr null, ptr %9, align 8, !tbaa !27
  %10 = call ptr @OSSL_PROVIDER_load(ptr noundef null, ptr noundef @.str.65)
  store ptr %10, ptr %9, align 8, !tbaa !27
  %11 = call i32 @test_ptr(ptr noundef @.str.28, i32 noundef 657, ptr noundef @.str.64, ptr noundef %10)
  %12 = icmp ne i32 %11, 0
  br i1 %12, label %13, label %52

13:                                               ; preds = %0
  %14 = call ptr @BIO_s_mem()
  %15 = call ptr @BIO_new(ptr noundef %14)
  store ptr %15, ptr %6, align 8, !tbaa !31
  %16 = call i32 @test_ptr(ptr noundef @.str.28, i32 noundef 658, ptr noundef @.str.193, ptr noundef %15)
  %17 = icmp ne i32 %16, 0
  br i1 %17, label %18, label %52

18:                                               ; preds = %13
  %19 = call ptr @BIO_new_mem_buf(ptr noundef @kExampleRSAKeyPKCS8, i32 noundef 634)
  store ptr %19, ptr %5, align 8, !tbaa !31
  %20 = call i32 @test_ptr(ptr noundef @.str.28, i32 noundef 660, ptr noundef @.str.194, ptr noundef %19)
  %21 = icmp ne i32 %20, 0
  br i1 %21, label %22, label %52

22:                                               ; preds = %18
  %23 = load ptr, ptr %5, align 8, !tbaa !31
  %24 = call ptr @d2i_PrivateKey_ex_bio(ptr noundef %23, ptr noundef null, ptr noundef null, ptr noundef null)
  store ptr %24, ptr %3, align 8, !tbaa !13
  %25 = call i32 @test_ptr(ptr noundef @.str.28, i32 noundef 661, ptr noundef @.str.195, ptr noundef %24)
  %26 = icmp ne i32 %25, 0
  br i1 %26, label %27, label %52

27:                                               ; preds = %22
  %28 = load ptr, ptr %6, align 8, !tbaa !31
  %29 = load ptr, ptr %3, align 8, !tbaa !13
  %30 = call i32 @i2d_PKCS8PrivateKey_nid_bio(ptr noundef %28, ptr noundef %29, i32 noundef 146, ptr noundef @test_pkcs8key_nid_bio.pwd, i32 noundef 8, ptr noundef null, ptr noundef null)
  %31 = call i32 @test_int_eq(ptr noundef @.str.28, i32 noundef 664, ptr noundef @.str.196, ptr noundef @.str.57, i32 noundef %30, i32 noundef 1)
  %32 = icmp ne i32 %31, 0
  br i1 %32, label %33, label %52

33:                                               ; preds = %27
  %34 = load ptr, ptr %6, align 8, !tbaa !31
  %35 = call i64 @BIO_ctrl(ptr noundef %34, i32 noundef 3, i64 noundef 0, ptr noundef %7)
  store i64 %35, ptr %8, align 8, !tbaa !23
  %36 = trunc i64 %35 to i32
  %37 = call i32 @test_int_gt(ptr noundef @.str.28, i32 noundef 665, ptr noundef @.str.197, ptr noundef @.str.69, i32 noundef %36, i32 noundef 0)
  %38 = icmp ne i32 %37, 0
  br i1 %38, label %39, label %52

39:                                               ; preds = %33
  %40 = load ptr, ptr %6, align 8, !tbaa !31
  %41 = call ptr @d2i_PKCS8PrivateKey_bio(ptr noundef %40, ptr noundef null, ptr noundef null, ptr noundef @test_pkcs8key_nid_bio.pwd)
  store ptr %41, ptr %4, align 8, !tbaa !13
  %42 = call i32 @test_ptr(ptr noundef @.str.28, i32 noundef 667, ptr noundef @.str.198, ptr noundef %41)
  %43 = icmp ne i32 %42, 0
  br i1 %43, label %44, label %52

44:                                               ; preds = %39
  %45 = load ptr, ptr %3, align 8, !tbaa !13
  %46 = load ptr, ptr %4, align 8, !tbaa !13
  %47 = call i32 @EVP_PKEY_eq(ptr noundef %45, ptr noundef %46)
  %48 = icmp ne i32 %47, 0
  %49 = zext i1 %48 to i32
  %50 = call i32 @test_true(ptr noundef @.str.28, i32 noundef 668, ptr noundef @.str.199, i32 noundef %49)
  %51 = icmp ne i32 %50, 0
  br label %52

52:                                               ; preds = %44, %39, %33, %27, %22, %18, %13, %0
  %53 = phi i1 [ false, %39 ], [ false, %33 ], [ false, %27 ], [ false, %22 ], [ false, %18 ], [ false, %13 ], [ false, %0 ], [ %51, %44 ]
  %54 = zext i1 %53 to i32
  store i32 %54, ptr %1, align 4, !tbaa !11
  %55 = load ptr, ptr %4, align 8, !tbaa !13
  call void @EVP_PKEY_free(ptr noundef %55)
  %56 = load ptr, ptr %3, align 8, !tbaa !13
  call void @EVP_PKEY_free(ptr noundef %56)
  %57 = load ptr, ptr %5, align 8, !tbaa !31
  %58 = call i32 @BIO_free(ptr noundef %57)
  %59 = load ptr, ptr %6, align 8, !tbaa !31
  %60 = call i32 @BIO_free(ptr noundef %59)
  %61 = load ptr, ptr %9, align 8, !tbaa !27
  %62 = call i32 @OSSL_PROVIDER_unload(ptr noundef %61)
  %63 = load i32, ptr %1, align 4, !tbaa !11
  call void @llvm.lifetime.end.p0(i64 8, ptr %9) #7
  call void @llvm.lifetime.end.p0(i64 8, ptr %8) #7
  call void @llvm.lifetime.end.p0(i64 8, ptr %7) #7
  call void @llvm.lifetime.end.p0(i64 8, ptr %6) #7
  call void @llvm.lifetime.end.p0(i64 8, ptr %5) #7
  call void @llvm.lifetime.end.p0(i64 8, ptr %4) #7
  call void @llvm.lifetime.end.p0(i64 8, ptr %3) #7
  call void @llvm.lifetime.end.p0(i64 4, ptr %2) #7
  call void @llvm.lifetime.end.p0(i64 4, ptr %1) #7
  ret i32 %63
}