; Function Attrs: nounwind uwtable
define internal range(i32 0, 2) i32 @test_pkcs8key_nid_bio() #0 {
  %1 = alloca ptr, align 8
  call void @llvm.lifetime.start.p0(i64 8, ptr nonnull %1) #7
  store ptr null, ptr %1, align 8, !tbaa !18
  %2 = tail call ptr @OSSL_PROVIDER_load(ptr noundef null, ptr noundef nonnull @.str.65) #7
  %3 = tail call i32 @test_ptr(ptr noundef nonnull @.str.28, i32 noundef 657, ptr noundef nonnull @.str.64, ptr noundef %2) #7
  %.not = icmp eq i32 %3, 0
  br i1 %.not, label %31, label %4

4:                                                ; preds = %0
  %5 = tail call ptr @BIO_s_mem() #7
  %6 = tail call ptr @BIO_new(ptr noundef %5) #7
  %7 = tail call i32 @test_ptr(ptr noundef nonnull @.str.28, i32 noundef 658, ptr noundef nonnull @.str.193, ptr noundef %6) #7
  %.not15 = icmp eq i32 %7, 0
  br i1 %.not15, label %31, label %8

8:                                                ; preds = %4
  %9 = tail call ptr @BIO_new_mem_buf(ptr noundef nonnull @kExampleRSAKeyPKCS8, i32 noundef 634) #7
  %10 = tail call i32 @test_ptr(ptr noundef nonnull @.str.28, i32 noundef 660, ptr noundef nonnull @.str.194, ptr noundef %9) #7
  %.not16 = icmp eq i32 %10, 0
  br i1 %.not16, label %31, label %11

11:                                               ; preds = %8
  %12 = tail call ptr @d2i_PrivateKey_ex_bio(ptr noundef %9, ptr noundef null, ptr noundef null, ptr noundef null) #7
  %13 = tail call i32 @test_ptr(ptr noundef nonnull @.str.28, i32 noundef 661, ptr noundef nonnull @.str.195, ptr noundef %12) #7
  %.not17 = icmp eq i32 %13, 0
  br i1 %.not17, label %31, label %14

14:                                               ; preds = %11
  %15 = tail call i32 @i2d_PKCS8PrivateKey_nid_bio(ptr noundef %6, ptr noundef %12, i32 noundef 146, ptr noundef nonnull @test_pkcs8key_nid_bio.pwd, i32 noundef 8, ptr noundef null, ptr noundef null) #7
  %16 = tail call i32 @test_int_eq(ptr noundef nonnull @.str.28, i32 noundef 664, ptr noundef nonnull @.str.196, ptr noundef nonnull @.str.57, i32 noundef %15, i32 noundef 1) #7
  %.not18 = icmp eq i32 %16, 0
  br i1 %.not18, label %31, label %17

17:                                               ; preds = %14
  %18 = call i64 @BIO_ctrl(ptr noundef %6, i32 noundef 3, i64 noundef 0, ptr noundef nonnull %1) #7
  %19 = trunc i64 %18 to i32
  %20 = call i32 @test_int_gt(ptr noundef nonnull @.str.28, i32 noundef 665, ptr noundef nonnull @.str.197, ptr noundef nonnull @.str.69, i32 noundef %19, i32 noundef 0) #7
  %.not19 = icmp eq i32 %20, 0
  br i1 %.not19, label %31, label %21

21:                                               ; preds = %17
  %22 = call ptr @d2i_PKCS8PrivateKey_bio(ptr noundef %6, ptr noundef null, ptr noundef null, ptr noundef nonnull @test_pkcs8key_nid_bio.pwd) #7
  %23 = call i32 @test_ptr(ptr noundef nonnull @.str.28, i32 noundef 667, ptr noundef nonnull @.str.198, ptr noundef %22) #7
  %.not20 = icmp eq i32 %23, 0
  br i1 %.not20, label %31, label %24

24:                                               ; preds = %21
  %25 = call i32 @EVP_PKEY_eq(ptr noundef %12, ptr noundef %22) #7
  %26 = icmp ne i32 %25, 0
  %27 = zext i1 %26 to i32
  %28 = call i32 @test_true(ptr noundef nonnull @.str.28, i32 noundef 668, ptr noundef nonnull @.str.199, i32 noundef %27) #7
  %29 = icmp ne i32 %28, 0
  %30 = zext i1 %29 to i32
  br label %31

31:                                               ; preds = %24, %21, %17, %14, %11, %8, %4, %0
  %.014 = phi ptr [ %12, %24 ], [ %12, %21 ], [ %12, %17 ], [ %12, %14 ], [ %12, %11 ], [ null, %8 ], [ null, %4 ], [ null, %0 ]
  %.013 = phi ptr [ %22, %24 ], [ %22, %21 ], [ null, %17 ], [ null, %14 ], [ null, %11 ], [ null, %8 ], [ null, %4 ], [ null, %0 ]
  %.012 = phi ptr [ %9, %24 ], [ %9, %21 ], [ %9, %17 ], [ %9, %14 ], [ %9, %11 ], [ %9, %8 ], [ null, %4 ], [ null, %0 ]
  %.0 = phi ptr [ %6, %24 ], [ %6, %21 ], [ %6, %17 ], [ %6, %14 ], [ %6, %11 ], [ %6, %8 ], [ %6, %4 ], [ null, %0 ]
  %32 = phi i32 [ %30, %24 ], [ 0, %21 ], [ 0, %17 ], [ 0, %14 ], [ 0, %11 ], [ 0, %8 ], [ 0, %4 ], [ 0, %0 ]
  call void @EVP_PKEY_free(ptr noundef %.013) #7
  call void @EVP_PKEY_free(ptr noundef %.014) #7
  %33 = call i32 @BIO_free(ptr noundef %.012) #7
  %34 = call i32 @BIO_free(ptr noundef %.0) #7
  %35 = call i32 @OSSL_PROVIDER_unload(ptr noundef %2) #7
  call void @llvm.lifetime.end.p0(i64 8, ptr nonnull %1) #7
  ret i32 %32
}